; Function Attrs: mustprogress uwtable
define void @_ZN5arrow2io16MemoryMappedFile9ReadAsyncERKNS0_9IOContextEll(ptr noalias sret(%"class.arrow::Future") align 8 %agg.result, ptr noundef nonnull align 8 dereferenceable(56) %this, ptr nocapture nonnull readnone align 8 %0, i64 noundef %position, i64 noundef %nbytes) unnamed_addr #0 align 2 personality ptr @__gxx_personality_v0 {
entry:
  %agg.tmp = alloca %"class.arrow::Result.33", align 8
  %vtable = load ptr, ptr %this, align 8
  %vfn = getelementptr inbounds i8, ptr %vtable, i64 88
  %1 = load ptr, ptr %vfn, align 8
  call void %1(ptr nonnull sret(%"class.arrow::Result.33") align 8 %agg.tmp, ptr noundef nonnull align 8 dereferenceable(56) %this, i64 noundef %position, i64 noundef %nbytes)
  invoke void @_ZN5arrow6FutureISt10shared_ptrINS_6BufferEEE12MakeFinishedENS_6ResultIS3_EE(ptr sret(%"class.arrow::Future") align 8 %agg.result, ptr noundef nonnull %agg.tmp)
          to label %invoke.cont unwind label %lpad

invoke.cont:                                      ; preds = %entry
  call void @_ZN5arrow6ResultISt10shared_ptrINS_6BufferEEED2Ev(ptr noundef nonnull align 8 dereferenceable(24) %agg.tmp) #22
  ret void

lpad:                                             ; preds = %entry
  %2 = landingpad { ptr, i32 }
          cleanup
  call void @_ZN5arrow6ResultISt10shared_ptrINS_6BufferEEED2Ev(ptr noundef nonnull align 8 dereferenceable(24) %agg.tmp) #22
  resume { ptr, i32 } %2
}